target datalayout = "e-m:e-p270:32:32-p271:32:32-p272:64:64-i64:64-i128:128-f80:128-n8:16:32:64-S128"
target triple = "x86_64-pc-linux-gnu"

@.str.78 = private unnamed_addr constant [4 x i8] c"buf\00", align 1
@.str.86 = private unnamed_addr constant [3 x i8] c"pi\00", align 1
@.str.87 = private unnamed_addr constant [3 x i8] c"po\00", align 1
@.str.88 = private unnamed_addr constant [3 x i8] c"ci\00", align 1
@.str.89 = private unnamed_addr constant [3 x i8] c"co\00", align 1
@.str.90 = private unnamed_addr constant [4 x i8] c"fon\00", align 1
@.str.91 = private unnamed_addr constant [4 x i8] c"box\00", align 1
@.str.92 = private unnamed_addr constant [2 x i8] c"~\00", align 1
@.str.93 = private unnamed_addr constant [4 x i8] c"mux\00", align 1
@.str.94 = private unnamed_addr constant [4 x i8] c"maj\00", align 1
@.str.95 = private unnamed_addr constant [2 x i8] c"&\00", align 1
@.str.96 = private unnamed_addr constant [2 x i8] c"|\00", align 1
@.str.97 = private unnamed_addr constant [2 x i8] c"^\00", align 1
@.str.98 = private unnamed_addr constant [3 x i8] c"~&\00", align 1
@.str.99 = private unnamed_addr constant [3 x i8] c"~|\00", align 1
@.str.100 = private unnamed_addr constant [3 x i8] c"~^\00", align 1
@.str.101 = private unnamed_addr constant [2 x i8] c"!\00", align 1
@.str.102 = private unnamed_addr constant [3 x i8] c"=>\00", align 1
@.str.103 = private unnamed_addr constant [3 x i8] c"&&\00", align 1
@.str.104 = private unnamed_addr constant [3 x i8] c"||\00", align 1
@.str.105 = private unnamed_addr constant [3 x i8] c"^^\00", align 1
@.str.106 = private unnamed_addr constant [2 x i8] c"+\00", align 1
@.str.107 = private unnamed_addr constant [2 x i8] c"-\00", align 1
@.str.108 = private unnamed_addr constant [2 x i8] c"*\00", align 1
@.str.109 = private unnamed_addr constant [2 x i8] c"/\00", align 1
@.str.110 = private unnamed_addr constant [2 x i8] c"%\00", align 1
@.str.111 = private unnamed_addr constant [4 x i8] c"mod\00", align 1
@.str.112 = private unnamed_addr constant [3 x i8] c"**\00", align 1
@.str.113 = private unnamed_addr constant [5 x i8] c"sqrt\00", align 1
@.str.114 = private unnamed_addr constant [6 x i8] c"squar\00", align 1
@.str.115 = private unnamed_addr constant [3 x i8] c"==\00", align 1
@.str.116 = private unnamed_addr constant [3 x i8] c"!=\00", align 1
@.str.117 = private unnamed_addr constant [2 x i8] c"<\00", align 1
@.str.118 = private unnamed_addr constant [2 x i8] c">\00", align 1
@.str.119 = private unnamed_addr constant [3 x i8] c"<=\00", align 1
@.str.120 = private unnamed_addr constant [3 x i8] c">=\00", align 1
@.str.121 = private unnamed_addr constant [3 x i8] c"<<\00", align 1
@.str.122 = private unnamed_addr constant [3 x i8] c">>\00", align 1
@.str.123 = private unnamed_addr constant [4 x i8] c"<<<\00", align 1
@.str.124 = private unnamed_addr constant [4 x i8] c">>>\00", align 1
@.str.125 = private unnamed_addr constant [5 x i8] c"rotL\00", align 1
@.str.126 = private unnamed_addr constant [5 x i8] c"rotR\00", align 1
@.str.127 = private unnamed_addr constant [7 x i8] c"DFFRSE\00", align 1
@.str.128 = private unnamed_addr constant [4 x i8] c"[:]\00", align 1
@.str.129 = private unnamed_addr constant [3 x i8] c"{}\00", align 1
@.str.130 = private unnamed_addr constant [5 x i8] c"zPad\00", align 1
@.str.131 = private unnamed_addr constant [5 x i8] c"sExt\00", align 1
@.str.132 = private unnamed_addr constant [5 x i8] c"nmux\00", align 1
@.str.133 = private unnamed_addr constant [5 x i8] c"pmux\00", align 1
@.str.134 = private unnamed_addr constant [6 x i8] c"const\00", align 1
@.str.135 = private unnamed_addr constant [6 x i8] c"table\00", align 1
@.str.136 = private unnamed_addr constant [4 x i8] c"lut\00", align 1

; Function Attrs: inlinehint nounwind uwtable
define internal ptr @Abc_OperName(i32 noundef %0) #2 {
  %2 = alloca ptr, align 8
  %3 = alloca i32, align 4
  store i32 %0, ptr %3, align 4, !tbaa !9
  %4 = load i32, ptr %3, align 4, !tbaa !9
  %5 = icmp eq i32 %4, 0
  br i1 %5, label %6, label %7

6:                                                ; preds = %1
  store ptr null, ptr %2, align 8
  br label %256

7:                                                ; preds = %1
  %8 = load i32, ptr %3, align 4, !tbaa !9
  %9 = icmp eq i32 %8, 1
  br i1 %9, label %10, label %11

10:                                               ; preds = %7
  store ptr @.str.86, ptr %2, align 8
  br label %256

11:                                               ; preds = %7
  %12 = load i32, ptr %3, align 4, !tbaa !9
  %13 = icmp eq i32 %12, 2
  br i1 %13, label %14, label %15

14:                                               ; preds = %11
  store ptr @.str.87, ptr %2, align 8
  br label %256

15:                                               ; preds = %11
  %16 = load i32, ptr %3, align 4, !tbaa !9
  %17 = icmp eq i32 %16, 3
  br i1 %17, label %18, label %19

18:                                               ; preds = %15
  store ptr @.str.88, ptr %2, align 8
  br label %256

19:                                               ; preds = %15
  %20 = load i32, ptr %3, align 4, !tbaa !9
  %21 = icmp eq i32 %20, 4
  br i1 %21, label %22, label %23

22:                                               ; preds = %19
  store ptr @.str.89, ptr %2, align 8
  br label %256

23:                                               ; preds = %19
  %24 = load i32, ptr %3, align 4, !tbaa !9
  %25 = icmp eq i32 %24, 5
  br i1 %25, label %26, label %27

26:                                               ; preds = %23
  store ptr @.str.90, ptr %2, align 8
  br label %256

27:                                               ; preds = %23
  %28 = load i32, ptr %3, align 4, !tbaa !9
  %29 = icmp eq i32 %28, 6
  br i1 %29, label %30, label %31

30:                                               ; preds = %27
  store ptr @.str.91, ptr %2, align 8
  br label %256

31:                                               ; preds = %27
  %32 = load i32, ptr %3, align 4, !tbaa !9
  %33 = icmp eq i32 %32, 11
  br i1 %33, label %34, label %35

34:                                               ; preds = %31
  store ptr @.str.78, ptr %2, align 8
  br label %256

35:                                               ; preds = %31
  %36 = load i32, ptr %3, align 4, !tbaa !9
  %37 = icmp eq i32 %36, 12
  br i1 %37, label %38, label %39

38:                                               ; preds = %35
  store ptr @.str.92, ptr %2, align 8
  br label %256

39:                                               ; preds = %35
  %40 = load i32, ptr %3, align 4, !tbaa !9
  %41 = icmp eq i32 %40, 21
  br i1 %41, label %42, label %43

42:                                               ; preds = %39
  store ptr @.str.93, ptr %2, align 8
  br label %256

43:                                               ; preds = %39
  %44 = load i32, ptr %3, align 4, !tbaa !9
  %45 = icmp eq i32 %44, 22
  br i1 %45, label %46, label %47

46:                                               ; preds = %43
  store ptr @.str.94, ptr %2, align 8
  br label %256

47:                                               ; preds = %43
  %48 = load i32, ptr %3, align 4, !tbaa !9
  %49 = icmp eq i32 %48, 13
  br i1 %49, label %50, label %51

50:                                               ; preds = %47
  store ptr @.str.95, ptr %2, align 8
  br label %256

51:                                               ; preds = %47
  %52 = load i32, ptr %3, align 4, !tbaa !9
  %53 = icmp eq i32 %52, 15
  br i1 %53, label %54, label %55

54:                                               ; preds = %51
  store ptr @.str.96, ptr %2, align 8
  br label %256

55:                                               ; preds = %51
  %56 = load i32, ptr %3, align 4, !tbaa !9
  %57 = icmp eq i32 %56, 17
  br i1 %57, label %58, label %59

58:                                               ; preds = %55
  store ptr @.str.97, ptr %2, align 8
  br label %256

59:                                               ; preds = %55
  %60 = load i32, ptr %3, align 4, !tbaa !9
  %61 = icmp eq i32 %60, 14
  br i1 %61, label %62, label %63

62:                                               ; preds = %59
  store ptr @.str.98, ptr %2, align 8
  br label %256

63:                                               ; preds = %59
  %64 = load i32, ptr %3, align 4, !tbaa !9
  %65 = icmp eq i32 %64, 16
  br i1 %65, label %66, label %67

66:                                               ; preds = %63
  store ptr @.str.99, ptr %2, align 8
  br label %256

67:                                               ; preds = %63
  %68 = load i32, ptr %3, align 4, !tbaa !9
  %69 = icmp eq i32 %68, 18
  br i1 %69, label %70, label %71

70:                                               ; preds = %67
  store ptr @.str.100, ptr %2, align 8
  br label %256

71:                                               ; preds = %67
  %72 = load i32, ptr %3, align 4, !tbaa !9
  %73 = icmp eq i32 %72, 30
  br i1 %73, label %74, label %75

74:                                               ; preds = %71
  store ptr @.str.95, ptr %2, align 8
  br label %256

75:                                               ; preds = %71
  %76 = load i32, ptr %3, align 4, !tbaa !9
  %77 = icmp eq i32 %76, 32
  br i1 %77, label %78, label %79

78:                                               ; preds = %75
  store ptr @.str.96, ptr %2, align 8
  br label %256

79:                                               ; preds = %75
  %80 = load i32, ptr %3, align 4, !tbaa !9
  %81 = icmp eq i32 %80, 34
  br i1 %81, label %82, label %83

82:                                               ; preds = %79
  store ptr @.str.97, ptr %2, align 8
  br label %256

83:                                               ; preds = %79
  %84 = load i32, ptr %3, align 4, !tbaa !9
  %85 = icmp eq i32 %84, 31
  br i1 %85, label %86, label %87

86:                                               ; preds = %83
  store ptr @.str.98, ptr %2, align 8
  br label %256

87:                                               ; preds = %83
  %88 = load i32, ptr %3, align 4, !tbaa !9
  %89 = icmp eq i32 %88, 33
  br i1 %89, label %90, label %91

90:                                               ; preds = %87
  store ptr @.str.99, ptr %2, align 8
  br label %256

91:                                               ; preds = %87
  %92 = load i32, ptr %3, align 4, !tbaa !9
  %93 = icmp eq i32 %92, 35
  br i1 %93, label %94, label %95

94:                                               ; preds = %91
  store ptr @.str.100, ptr %2, align 8
  br label %256

95:                                               ; preds = %91
  %96 = load i32, ptr %3, align 4, !tbaa !9
  %97 = icmp eq i32 %96, 36
  br i1 %97, label %98, label %99

98:                                               ; preds = %95
  store ptr @.str.101, ptr %2, align 8
  br label %256

99:                                               ; preds = %95
  %100 = load i32, ptr %3, align 4, !tbaa !9
  %101 = icmp eq i32 %100, 95
  br i1 %101, label %102, label %103

102:                                              ; preds = %99
  store ptr @.str.102, ptr %2, align 8
  br label %256

103:                                              ; preds = %99
  %104 = load i32, ptr %3, align 4, !tbaa !9
  %105 = icmp eq i32 %104, 37
  br i1 %105, label %106, label %107

106:                                              ; preds = %103
  store ptr @.str.103, ptr %2, align 8
  br label %256

107:                                              ; preds = %103
  %108 = load i32, ptr %3, align 4, !tbaa !9
  %109 = icmp eq i32 %108, 39
  br i1 %109, label %110, label %111

110:                                              ; preds = %107
  store ptr @.str.104, ptr %2, align 8
  br label %256

111:                                              ; preds = %107
  %112 = load i32, ptr %3, align 4, !tbaa !9
  %113 = icmp eq i32 %112, 41
  br i1 %113, label %114, label %115

114:                                              ; preds = %111
  store ptr @.str.105, ptr %2, align 8
  br label %256

115:                                              ; preds = %111
  %116 = load i32, ptr %3, align 4, !tbaa !9
  %117 = icmp eq i32 %116, 50
  br i1 %117, label %118, label %119

118:                                              ; preds = %115
  store ptr @.str.106, ptr %2, align 8
  br label %256

119:                                              ; preds = %115
  %120 = load i32, ptr %3, align 4, !tbaa !9
  %121 = icmp eq i32 %120, 51
  br i1 %121, label %122, label %123

122:                                              ; preds = %119
  store ptr @.str.107, ptr %2, align 8
  br label %256

123:                                              ; preds = %119
  %124 = load i32, ptr %3, align 4, !tbaa !9
  %125 = icmp eq i32 %124, 52
  br i1 %125, label %126, label %127

126:                                              ; preds = %123
  store ptr @.str.108, ptr %2, align 8
  br label %256

127:                                              ; preds = %123
  %128 = load i32, ptr %3, align 4, !tbaa !9
  %129 = icmp eq i32 %128, 53
  br i1 %129, label %130, label %131

130:                                              ; preds = %127
  store ptr @.str.108, ptr %2, align 8
  br label %256

131:                                              ; preds = %127
  %132 = load i32, ptr %3, align 4, !tbaa !9
  %133 = icmp eq i32 %132, 54
  br i1 %133, label %134, label %135

134:                                              ; preds = %131
  store ptr @.str.109, ptr %2, align 8
  br label %256

135:                                              ; preds = %131
  %136 = load i32, ptr %3, align 4, !tbaa !9
  %137 = icmp eq i32 %136, 56
  br i1 %137, label %138, label %139

138:                                              ; preds = %135
  store ptr @.str.110, ptr %2, align 8
  br label %256

139:                                              ; preds = %135
  %140 = load i32, ptr %3, align 4, !tbaa !9
  %141 = icmp eq i32 %140, 55
  br i1 %141, label %142, label %143

142:                                              ; preds = %139
  store ptr @.str.111, ptr %2, align 8
  br label %256

143:                                              ; preds = %139
  %144 = load i32, ptr %3, align 4, !tbaa !9
  %145 = icmp eq i32 %144, 57
  br i1 %145, label %146, label %147

146:                                              ; preds = %143
  store ptr @.str.112, ptr %2, align 8
  br label %256

147:                                              ; preds = %143
  %148 = load i32, ptr %3, align 4, !tbaa !9
  %149 = icmp eq i32 %148, 58
  br i1 %149, label %150, label %151

150:                                              ; preds = %147
  store ptr @.str.107, ptr %2, align 8
  br label %256

151:                                              ; preds = %147
  %152 = load i32, ptr %3, align 4, !tbaa !9
  %153 = icmp eq i32 %152, 59
  br i1 %153, label %154, label %155

154:                                              ; preds = %151
  store ptr @.str.113, ptr %2, align 8
  br label %256

155:                                              ; preds = %151
  %156 = load i32, ptr %3, align 4, !tbaa !9
  %157 = icmp eq i32 %156, 96
  br i1 %157, label %158, label %159

158:                                              ; preds = %155
  store ptr @.str.114, ptr %2, align 8
  br label %256

159:                                              ; preds = %155
  %160 = load i32, ptr %3, align 4, !tbaa !9
  %161 = icmp eq i32 %160, 66
  br i1 %161, label %162, label %163

162:                                              ; preds = %159
  store ptr @.str.115, ptr %2, align 8
  br label %256

163:                                              ; preds = %159
  %164 = load i32, ptr %3, align 4, !tbaa !9
  %165 = icmp eq i32 %164, 67
  br i1 %165, label %166, label %167

166:                                              ; preds = %163
  store ptr @.str.116, ptr %2, align 8
  br label %256

167:                                              ; preds = %163
  %168 = load i32, ptr %3, align 4, !tbaa !9
  %169 = icmp eq i32 %168, 62
  br i1 %169, label %170, label %171

170:                                              ; preds = %167
  store ptr @.str.117, ptr %2, align 8
  br label %256

171:                                              ; preds = %167
  %172 = load i32, ptr %3, align 4, !tbaa !9
  %173 = icmp eq i32 %172, 65
  br i1 %173, label %174, label %175

174:                                              ; preds = %171
  store ptr @.str.118, ptr %2, align 8
  br label %256

175:                                              ; preds = %171
  %176 = load i32, ptr %3, align 4, !tbaa !9
  %177 = icmp eq i32 %176, 63
  br i1 %177, label %178, label %179

178:                                              ; preds = %175
  store ptr @.str.119, ptr %2, align 8
  br label %256

179:                                              ; preds = %175
  %180 = load i32, ptr %3, align 4, !tbaa !9
  %181 = icmp eq i32 %180, 64
  br i1 %181, label %182, label %183

182:                                              ; preds = %179
  store ptr @.str.120, ptr %2, align 8
  br label %256

183:                                              ; preds = %179
  %184 = load i32, ptr %3, align 4, !tbaa !9
  %185 = icmp eq i32 %184, 68
  br i1 %185, label %186, label %187

186:                                              ; preds = %183
  store ptr @.str.121, ptr %2, align 8
  br label %256

187:                                              ; preds = %183
  %188 = load i32, ptr %3, align 4, !tbaa !9
  %189 = icmp eq i32 %188, 69
  br i1 %189, label %190, label %191

190:                                              ; preds = %187
  store ptr @.str.122, ptr %2, align 8
  br label %256

191:                                              ; preds = %187
  %192 = load i32, ptr %3, align 4, !tbaa !9
  %193 = icmp eq i32 %192, 70
  br i1 %193, label %194, label %195

194:                                              ; preds = %191
  store ptr @.str.123, ptr %2, align 8
  br label %256

195:                                              ; preds = %191
  %196 = load i32, ptr %3, align 4, !tbaa !9
  %197 = icmp eq i32 %196, 71
  br i1 %197, label %198, label %199

198:                                              ; preds = %195
  store ptr @.str.124, ptr %2, align 8
  br label %256

199:                                              ; preds = %195
  %200 = load i32, ptr %3, align 4, !tbaa !9
  %201 = icmp eq i32 %200, 72
  br i1 %201, label %202, label %203

202:                                              ; preds = %199
  store ptr @.str.125, ptr %2, align 8
  br label %256

203:                                              ; preds = %199
  %204 = load i32, ptr %3, align 4, !tbaa !9
  %205 = icmp eq i32 %204, 73
  br i1 %205, label %206, label %207

206:                                              ; preds = %203
  store ptr @.str.126, ptr %2, align 8
  br label %256

207:                                              ; preds = %203
  %208 = load i32, ptr %3, align 4, !tbaa !9
  %209 = icmp eq i32 %208, 89
  br i1 %209, label %210, label %211

210:                                              ; preds = %207
  store ptr @.str.127, ptr %2, align 8
  br label %256

211:                                              ; preds = %207
  %212 = load i32, ptr %3, align 4, !tbaa !9
  %213 = icmp eq i32 %212, 91
  br i1 %213, label %214, label %215

214:                                              ; preds = %211
  store ptr @.str.128, ptr %2, align 8
  br label %256

215:                                              ; preds = %211
  %216 = load i32, ptr %3, align 4, !tbaa !9
  %217 = icmp eq i32 %216, 92
  br i1 %217, label %218, label %219

218:                                              ; preds = %215
  store ptr @.str.129, ptr %2, align 8
  br label %256

219:                                              ; preds = %215
  %220 = load i32, ptr %3, align 4, !tbaa !9
  %221 = icmp eq i32 %220, 93
  br i1 %221, label %222, label %223

222:                                              ; preds = %219
  store ptr @.str.130, ptr %2, align 8
  br label %256

223:                                              ; preds = %219
  %224 = load i32, ptr %3, align 4, !tbaa !9
  %225 = icmp eq i32 %224, 94
  br i1 %225, label %226, label %227

226:                                              ; preds = %223
  store ptr @.str.131, ptr %2, align 8
  br label %256

227:                                              ; preds = %223
  %228 = load i32, ptr %3, align 4, !tbaa !9
  %229 = icmp eq i32 %228, 21
  br i1 %229, label %230, label %231

230:                                              ; preds = %227
  store ptr @.str.93, ptr %2, align 8
  br label %256

231:                                              ; preds = %227
  %232 = load i32, ptr %3, align 4, !tbaa !9
  %233 = icmp eq i32 %232, 43
  br i1 %233, label %234, label %235

234:                                              ; preds = %231
  store ptr @.str.132, ptr %2, align 8
  br label %256

235:                                              ; preds = %231
  %236 = load i32, ptr %3, align 4, !tbaa !9
  %237 = icmp eq i32 %236, 44
  br i1 %237, label %238, label %239

238:                                              ; preds = %235
  store ptr @.str.133, ptr %2, align 8
  br label %256

239:                                              ; preds = %235
  %240 = load i32, ptr %3, align 4, !tbaa !9
  %241 = icmp eq i32 %240, 97
  br i1 %241, label %242, label %243

242:                                              ; preds = %239
  store ptr @.str.134, ptr %2, align 8
  br label %256

243:                                              ; preds = %239
  %244 = load i32, ptr %3, align 4, !tbaa !9
  %245 = icmp eq i32 %244, 77
  br i1 %245, label %246, label %247

246:                                              ; preds = %243
  store ptr @.str.135, ptr %2, align 8
  br label %256

247:                                              ; preds = %243
  %248 = load i32, ptr %3, align 4, !tbaa !9
  %249 = icmp eq i32 %248, 75
  br i1 %249, label %250, label %251

250:                                              ; preds = %247
  store ptr @.str.136, ptr %2, align 8
  br label %256

251:                                              ; preds = %247
  %252 = load i32, ptr %3, align 4, !tbaa !9
  %253 = icmp eq i32 %252, 99
  br i1 %253, label %254, label %255

254:                                              ; preds = %251
  store ptr null, ptr %2, align 8
  br label %256

255:                                              ; preds = %251
  store ptr null, ptr %2, align 8
  br label %256

256:                                              ; preds = %255, %254, %250, %246, %242, %238, %234, %230, %226, %222, %218, %214, %210, %206, %202, %198, %194, %190, %186, %182, %178, %174, %170, %166, %162, %158, %154, %150, %146, %142, %138, %134, %130, %126, %122, %118, %114, %110, %106, %102, %98, %94, %90, %86, %82, %78, %74, %70, %66, %62, %58, %54, %50, %46, %42, %38, %34, %30, %26, %22, %18, %14, %10, %6
  %257 = load ptr, ptr %2, align 8
  ret ptr %257
}