; Function Attrs: inlinehint mustprogress nofree norecurse nosync nounwind willreturn memory(none) uwtable
define internal fastcc noundef ptr @Abc_OperName(i32 noundef %0) unnamed_addr #10 {
  %switch.tableidx = add i32 %0, -1
  %2 = icmp ult i32 %switch.tableidx, 97
  br i1 %2, label %switch.lookup, label %4

switch.lookup:                                    ; preds = %1
  %3 = zext nneg i32 %switch.tableidx to i64
  %switch.gep = getelementptr inbounds nuw [97 x ptr], ptr @switch.table.Abc_OperName, i64 0, i64 %3
  %switch.load = load ptr, ptr %switch.gep, align 8
  br label %4

4:                                                ; preds = %switch.lookup, %1
  %.0 = phi ptr [ null, %1 ], [ %switch.load, %switch.lookup ]
  ret ptr %.0
}